target datalayout = "e-m:e-p270:32:32-p271:32:32-p272:64:64-i64:64-i128:128-f80:128-n8:16:32:64-S128"
target triple = "x86_64-pc-linux-gnu"

%"class.cv::WBaseStream" = type { ptr, ptr, ptr, ptr, i32, i32, ptr, i8, ptr }

; Function Attrs: mustprogress nounwind uwtable
define hidden void @_ZN2cv11WBaseStream7releaseEv(ptr noundef nonnull align 8 dereferenceable(64) %0) unnamed_addr #0 align 2 {
  %2 = alloca ptr, align 8
  store ptr %0, ptr %2, align 8, !tbaa !59
  %3 = load ptr, ptr %2, align 8
  %4 = getelementptr inbounds nuw %"class.cv::WBaseStream", ptr %3, i32 0, i32 1
  %5 = load ptr, ptr %4, align 8, !tbaa !65
  %6 = icmp ne ptr %5, null
  br i1 %6, label %7, label %13

7:                                                ; preds = %1
  %8 = getelementptr inbounds nuw %"class.cv::WBaseStream", ptr %3, i32 0, i32 1
  %9 = load ptr, ptr %8, align 8, !tbaa !65
  %10 = icmp eq ptr %9, null
  br i1 %10, label %12, label %11

11:                                               ; preds = %7
  call void @_ZdaPv(ptr noundef %9) #18
  br label %12

12:                                               ; preds = %11, %7
  br label %13

13:                                               ; preds = %12, %1
  %14 = getelementptr inbounds nuw %"class.cv::WBaseStream", ptr %3, i32 0, i32 3
  store ptr null, ptr %14, align 8, !tbaa !61
  %15 = getelementptr inbounds nuw %"class.cv::WBaseStream", ptr %3, i32 0, i32 2
  store ptr null, ptr %15, align 8, !tbaa !64
  %16 = getelementptr inbounds nuw %"class.cv::WBaseStream", ptr %3, i32 0, i32 1
  store ptr null, ptr %16, align 8, !tbaa !65
  ret void
}