; Function Attrs: mustprogress nounwind uwtable
define hidden void @_ZN2cv11WBaseStream7releaseEv(ptr noundef nonnull align 8 captures(none) dereferenceable(64) initializes((16, 32)) %0) unnamed_addr #4 align 2 {
  %2 = getelementptr inbounds nuw i8, ptr %0, i64 8
  %3 = load ptr, ptr %2, align 8, !tbaa !53
  %.not = icmp eq ptr %3, null
  br i1 %.not, label %5, label %4

4:                                                ; preds = %1
  tail call void @_ZdaPv(ptr noundef nonnull %3) #23
  br label %5

5:                                                ; preds = %4, %1
  tail call void @llvm.memset.p0.i64(ptr noundef nonnull align 8 dereferenceable(24) %2, i8 0, i64 24, i1 false)
  ret void
}